target datalayout = "e-m:e-p270:32:32-p271:32:32-p272:64:64-i64:64-i128:128-f80:128-n8:16:32:64-S128"
target triple = "x86_64-pc-linux-gnu"

%struct.redisServer = type { i32, i64, ptr, ptr, ptr, i32, i32, i32, i32, i32, ptr, ptr, ptr, ptr, ptr, i32, i32, i32, i32, i64, i32, i32, i32, i32, ptr, i32, i32, [41 x i8], i32, i64, i32, i32, i32, ptr, ptr, i32, i32, i64, ptr, ptr, ptr, ptr, [2 x i32], i32, i32, i32, i32, i32, i32, [16 x ptr], i32, ptr, ptr, i32, [8 x %struct.connListener], i32, %struct.connListener, ptr, ptr, ptr, ptr, ptr, ptr, ptr, ptr, ptr, ptr, i32, ptr, i32, ptr, [3 x %struct.pause_event], [256 x i8], ptr, i64, i32, i32, [128 x i32], i32, i32, i64, i32, i32, i32, i32, i32, i64, i64, i64, i64, i64, i64, i64, i64, i64, i64, double, i64, i64, i64, i64, i64, i64, i64, i64, i64, i64, i64, i64, i64, i64, i64, i64, i64, i64, i64, i64, i64, double, i64, i64, i64, i64, i64, ptr, i64, i64, i64, %struct.malloc_stats, i64, i64, i64, i64, i64, i64, i64, i64, i64, i64, i64, i64, double, [4 x i64], i64, i64, i64, i64, [128 x i64], [128 x i64], i64, i64, [7 x %struct.anon], i64, i64, i64, i64, i64, i64, [4 x %struct.durationStats], i32, i32, i32, i32, i32, i32, i32, i32, i32, i32, i32, i32, i64, i32, i32, i32, i32, i64, i64, i32, i32, i32, i32, i32, ptr, [3 x %struct.clientBufferLimitsConfig], i32, i32, i32, ptr, i32, i32, i32, i32, i32, i32, ptr, ptr, i32, i32, i64, i64, i64, i64, i64, i32, i32, ptr, i32, i32, i64, i64, i64, i64, i64, i32, i32, i64, i32, i32, i32, i32, i32, i32, i32, i32, ptr, i32, i64, i64, i64, i64, i32, ptr, i32, ptr, i32, i32, i32, i64, i64, i64, i64, i32, i32, i32, i32, i32, i32, ptr, i32, i32, ptr, i32, i32, i32, [2 x i32], i32, %struct.redisOpArray, i32, ptr, i32, ptr, i32, i32, i32, i32, i32, i32, i32, [41 x i8], [41 x i8], i64, i64, i64, i64, i32, i32, ptr, i64, i64, %struct.replDataBuf, i64, i64, i32, i32, i32, i32, i32, i32, i32, i32, i32, i64, ptr, i64, ptr, ptr, ptr, i32, i32, ptr, ptr, i32, i32, i32, i64, i64, i64, i64, ptr, ptr, i32, ptr, i64, i32, i32, i32, i64, i32, i32, i32, i32, ptr, i32, i32, [41 x i8], i64, i32, ptr, i32, i32, i64, i64, i32, i32, i32, i32, i32, i64, [3 x i32], i32, i32, i32, [10 x i32], ptr, ptr, i32, i64, ptr, ptr, i32, i32, i32, i32, i64, i64, i64, i64, i64, i64, i64, i64, i64, i64, i32, i32, i64, i64, i32, i64, i64, i64, i64, i64, ptr, ptr, i32, ptr, i32, i32, i32, i32, i64, i64, ptr, ptr, i32, i32, i32, i32, i32, ptr, ptr, ptr, i32, i32, i32, i32, i32, i32, i32, i64, i32, i32, i64, i32, i32, i32, i32, i32, i32, i32, i64, ptr, ptr, i64, ptr, i32, %struct.aclInfo, i32, i64, i32, i32, i32, %struct.redisTLSContextConfig, ptr, ptr, ptr, ptr, ptr, i64, i32, ptr, i32, i32, i32, i64, i32, ptr }
%struct.connListener = type { [16 x i32], i32, ptr, i32, i32, ptr, ptr }
%struct.pause_event = type { i32, i64 }
%struct.malloc_stats = type { i64, i64, i64, i64, i64, i64, i64, i64, i64, i64, i64 }
%struct.anon = type { i64, i64, [16 x i64], i32 }
%struct.durationStats = type { i64, i64, i64 }
%struct.clientBufferLimitsConfig = type { i64, i64, i64 }
%struct.redisOpArray = type { ptr, i32, i32 }
%struct.replDataBuf = type { ptr, i64, i64, i64, i64 }
%struct.aclInfo = type { i64, i64, i64, i64 }
%struct.redisTLSContextConfig = type { ptr, ptr, ptr, ptr, ptr, ptr, ptr, ptr, ptr, ptr, ptr, ptr, i32, i32, i32, i32 }

@server = external global %struct.redisServer, align 8
@.str.114 = private unnamed_addr constant [31 x i8] c"Failed loading library payload\00", align 1
@.str.115 = private unnamed_addr constant [28 x i8] c"Failed creating the library\00", align 1
@.str.116 = private unnamed_addr constant [29 x i8] c"Failed creating function, %s\00", align 1

; Function Attrs: nounwind uwtable
define dso_local i32 @rdbFunctionLoad(ptr noundef %0, i32 noundef %1, ptr noundef %2, i32 noundef %3, ptr noundef %4) #0 {
  %6 = alloca i32, align 4
  %7 = alloca ptr, align 8
  %8 = alloca i32, align 4
  %9 = alloca ptr, align 8
  %10 = alloca i32, align 4
  %11 = alloca ptr, align 8
  %12 = alloca ptr, align 8
  %13 = alloca ptr, align 8
  %14 = alloca i32, align 4
  %15 = alloca ptr, align 8
  %16 = alloca i32, align 4
  store ptr %0, ptr %7, align 8, !tbaa !53
  store i32 %1, ptr %8, align 4, !tbaa !5
  store ptr %2, ptr %9, align 8, !tbaa !284
  store i32 %3, ptr %10, align 4, !tbaa !5
  store ptr %4, ptr %11, align 8, !tbaa !221
  call void @llvm.lifetime.start.p0(i64 8, ptr %12) #15
  store ptr null, ptr %12, align 8, !tbaa !9
  call void @llvm.lifetime.start.p0(i64 8, ptr %13) #15
  store ptr null, ptr %13, align 8, !tbaa !9
  call void @llvm.lifetime.start.p0(i64 4, ptr %14) #15
  store i32 -1, ptr %14, align 4, !tbaa !5
  %17 = load ptr, ptr %7, align 8, !tbaa !53
  %18 = call ptr @rdbGenericLoadStringObject(ptr noundef %17, i32 noundef 4, ptr noundef null)
  store ptr %18, ptr %13, align 8, !tbaa !9
  %19 = icmp ne ptr %18, null
  br i1 %19, label %22, label %20

20:                                               ; preds = %5
  %21 = call ptr @sdsnew(ptr noundef @.str.114)
  store ptr %21, ptr %12, align 8, !tbaa !9
  br label %44

22:                                               ; preds = %5
  %23 = load ptr, ptr %9, align 8, !tbaa !284
  %24 = icmp ne ptr %23, null
  br i1 %24, label %25, label %43

25:                                               ; preds = %22
  call void @llvm.lifetime.start.p0(i64 8, ptr %15) #15
  store ptr null, ptr %15, align 8, !tbaa !9
  %26 = load ptr, ptr %13, align 8, !tbaa !9
  %27 = load i32, ptr %10, align 4, !tbaa !5
  %28 = and i32 %27, 4
  %29 = load ptr, ptr %9, align 8, !tbaa !284
  %30 = call ptr @functionsCreateWithLibraryCtx(ptr noundef %26, i32 noundef %28, ptr noundef %12, ptr noundef %29, i64 noundef 0)
  store ptr %30, ptr %15, align 8, !tbaa !9
  %31 = icmp ne ptr %30, null
  br i1 %31, label %38, label %32

32:                                               ; preds = %25
  %33 = load ptr, ptr %12, align 8, !tbaa !9
  %34 = icmp ne ptr %33, null
  br i1 %34, label %37, label %35

35:                                               ; preds = %32
  %36 = call ptr @sdsnew(ptr noundef @.str.115)
  store ptr %36, ptr %12, align 8, !tbaa !9
  br label %37

37:                                               ; preds = %35, %32
  store i32 2, ptr %16, align 4
  br label %40

38:                                               ; preds = %25
  %39 = load ptr, ptr %15, align 8, !tbaa !9
  call void @sdsfree(ptr noundef %39)
  store i32 0, ptr %16, align 4
  br label %40

40:                                               ; preds = %37, %38
  call void @llvm.lifetime.end.p0(i64 8, ptr %15) #15
  %41 = load i32, ptr %16, align 4
  switch i32 %41, label %71 [
    i32 0, label %42
    i32 2, label %44
  ]

42:                                               ; preds = %40
  br label %43

43:                                               ; preds = %42, %22
  store i32 0, ptr %14, align 4, !tbaa !5
  br label %44

44:                                               ; preds = %43, %40, %20
  %45 = load ptr, ptr %13, align 8, !tbaa !9
  %46 = icmp ne ptr %45, null
  br i1 %46, label %47, label %49

47:                                               ; preds = %44
  %48 = load ptr, ptr %13, align 8, !tbaa !9
  call void @sdsfree(ptr noundef %48)
  br label %49

49:                                               ; preds = %47, %44
  %50 = load ptr, ptr %12, align 8, !tbaa !9
  %51 = icmp ne ptr %50, null
  br i1 %51, label %52, label %69

52:                                               ; preds = %49
  %53 = load ptr, ptr %11, align 8, !tbaa !221
  %54 = icmp ne ptr %53, null
  br i1 %54, label %55, label %58

55:                                               ; preds = %52
  %56 = load ptr, ptr %12, align 8, !tbaa !9
  %57 = load ptr, ptr %11, align 8, !tbaa !221
  store ptr %56, ptr %57, align 8, !tbaa !9
  br label %68

58:                                               ; preds = %52
  br label %59

59:                                               ; preds = %58
  %60 = load i32, ptr getelementptr inbounds nuw (%struct.redisServer, ptr @server, i32 0, i32 159), align 8, !tbaa !52
  %61 = icmp slt i32 3, %60
  br i1 %61, label %62, label %63

62:                                               ; preds = %59
  br label %66

63:                                               ; preds = %59
  %64 = load ptr, ptr %12, align 8, !tbaa !9
  call void (i32, ptr, ...) @_serverLog(i32 noundef 3, ptr noundef @.str.116, ptr noundef %64)
  br label %65

65:                                               ; preds = %63
  br label %66

66:                                               ; preds = %65, %62
  %67 = load ptr, ptr %12, align 8, !tbaa !9
  call void @sdsfree(ptr noundef %67)
  br label %68

68:                                               ; preds = %66, %55
  br label %69

69:                                               ; preds = %68, %49
  %70 = load i32, ptr %14, align 4, !tbaa !5
  store i32 %70, ptr %6, align 4
  store i32 1, ptr %16, align 4
  br label %71

71:                                               ; preds = %69, %40
  call void @llvm.lifetime.end.p0(i64 4, ptr %14) #15
  call void @llvm.lifetime.end.p0(i64 8, ptr %13) #15
  call void @llvm.lifetime.end.p0(i64 8, ptr %12) #15
  %72 = load i32, ptr %6, align 4
  ret i32 %72
}