; Function Attrs: nounwind uwtable
define dso_local range(i32 -1, 1) i32 @rdbFunctionLoad(ptr noundef %0, i32 %1, ptr noundef %2, i32 noundef %3, ptr noundef writeonly captures(address_is_null) %4) local_unnamed_addr #0 {
  %6 = alloca ptr, align 8
  call void @llvm.lifetime.start.p0(i64 8, ptr nonnull %6) #23
  store ptr null, ptr %6, align 8, !tbaa !52
  %7 = tail call ptr @rdbGenericLoadStringObject(ptr noundef %0, i32 noundef 4, ptr noundef null)
  %.not = icmp eq ptr %7, null
  br i1 %.not, label %17, label %8

8:                                                ; preds = %5
  %.not19 = icmp eq ptr %2, null
  br i1 %.not19, label %.thread, label %9

9:                                                ; preds = %8
  %10 = and i32 %3, 4
  %11 = call ptr @functionsCreateWithLibraryCtx(ptr noundef nonnull %7, i32 noundef %10, ptr noundef nonnull %6, ptr noundef nonnull %2, i64 noundef 0) #23
  %.not20 = icmp eq ptr %11, null
  br i1 %.not20, label %12, label %16

12:                                               ; preds = %9
  %13 = load ptr, ptr %6, align 8, !tbaa !52
  %.not21 = icmp eq ptr %13, null
  br i1 %.not21, label %14, label %.thread

14:                                               ; preds = %12
  %15 = call ptr @sdsnew(ptr noundef nonnull @.str.115) #23
  store ptr %15, ptr %6, align 8, !tbaa !52
  br label %.thread

16:                                               ; preds = %9
  call void @sdsfree(ptr noundef nonnull %11) #23
  br label %.thread

17:                                               ; preds = %5
  %18 = tail call ptr @sdsnew(ptr noundef nonnull @.str.114) #23
  store ptr %18, ptr %6, align 8, !tbaa !52
  br label %19

.thread:                                          ; preds = %12, %14, %8, %16
  %.012.ph = phi i32 [ 0, %8 ], [ 0, %16 ], [ -1, %14 ], [ -1, %12 ]
  call void @sdsfree(ptr noundef nonnull %7) #23
  %.pr = load ptr, ptr %6, align 8, !tbaa !52
  br label %19

19:                                               ; preds = %17, %.thread
  %20 = phi ptr [ %18, %17 ], [ %.pr, %.thread ]
  %.01231 = phi i32 [ -1, %17 ], [ %.012.ph, %.thread ]
  %.not22 = icmp eq ptr %20, null
  br i1 %.not22, label %29, label %21

21:                                               ; preds = %19
  %.not23 = icmp eq ptr %4, null
  br i1 %.not23, label %23, label %22

22:                                               ; preds = %21
  store ptr %20, ptr %4, align 8, !tbaa !52
  br label %29

23:                                               ; preds = %21
  %24 = load i32, ptr getelementptr inbounds nuw (i8, ptr @server, i64 6288), align 8, !tbaa !50
  %25 = icmp sgt i32 %24, 3
  br i1 %25, label %27, label %26

26:                                               ; preds = %23
  call void (i32, ptr, ...) @_serverLog(i32 noundef 3, ptr noundef nonnull @.str.116, ptr noundef nonnull %20) #23
  %.pre = load ptr, ptr %6, align 8, !tbaa !52
  br label %27

27:                                               ; preds = %23, %26
  %28 = phi ptr [ %20, %23 ], [ %.pre, %26 ]
  call void @sdsfree(ptr noundef %28) #23
  br label %29

29:                                               ; preds = %19, %27, %22
  call void @llvm.lifetime.end.p0(i64 8, ptr nonnull %6) #23
  ret i32 %.01231
}